target datalayout = "e-m:e-p270:32:32-p271:32:32-p272:64:64-i64:64-i128:128-f80:128-n8:16:32:64-S128"
target triple = "x86_64-pc-linux-gnu"

@hf_ua3g_subdevice_state = internal global i32 0, align 4
@.str.1299 = private unnamed_addr constant [23 x i8] c"Subdevice %d State: %d\00", align 1

; Function Attrs: null_pointer_is_valid sspstrong uwtable
define internal void @decode_subdevice_state(ptr noundef %0, ptr noundef %1, ptr noundef %2, i32 noundef %3) #0 {
  %5 = alloca ptr, align 8
  %6 = alloca ptr, align 8
  %7 = alloca ptr, align 8
  %8 = alloca i32, align 4
  %9 = alloca i8, align 1
  %10 = alloca i32, align 4
  store ptr %0, ptr %5, align 8
  store ptr %1, ptr %6, align 8
  store ptr %2, ptr %7, align 8
  store i32 %3, ptr %8, align 4
  call void @llvm.lifetime.start.p0(i64 1, ptr %9) #8
  call void @llvm.lifetime.start.p0(i64 4, ptr %10) #8
  store i32 0, ptr %10, align 4
  br label %11

11:                                               ; preds = %48, %4
  %12 = load i32, ptr %10, align 4
  %13 = icmp sle i32 %12, 7
  br i1 %13, label %14, label %51

14:                                               ; preds = %11
  %15 = load ptr, ptr %6, align 8
  %16 = load i32, ptr %8, align 4
  %17 = call zeroext i8 @tvb_get_uint8(ptr noundef %15, i32 noundef %16)
  store i8 %17, ptr %9, align 1
  %18 = load ptr, ptr %5, align 8
  %19 = load i32, ptr @hf_ua3g_subdevice_state, align 4
  %20 = load ptr, ptr %6, align 8
  %21 = load i32, ptr %8, align 4
  %22 = load i8, ptr %9, align 1
  %23 = zext i8 %22 to i32
  %24 = and i32 %23, 15
  %25 = load i32, ptr %10, align 4
  %26 = load i8, ptr %9, align 1
  %27 = zext i8 %26 to i32
  %28 = and i32 %27, 15
  %29 = call ptr (ptr, i32, ptr, i32, i32, i32, ptr, ...) @proto_tree_add_uint_format(ptr noundef %18, i32 noundef %19, ptr noundef %20, i32 noundef %21, i32 noundef 1, i32 noundef %24, ptr noundef @.str.1299, i32 noundef %25, i32 noundef %28)
  %30 = load i32, ptr %10, align 4
  %31 = add i32 %30, 1
  store i32 %31, ptr %10, align 4
  %32 = load ptr, ptr %5, align 8
  %33 = load i32, ptr @hf_ua3g_subdevice_state, align 4
  %34 = load ptr, ptr %6, align 8
  %35 = load i32, ptr %8, align 4
  %36 = load i8, ptr %9, align 1
  %37 = zext i8 %36 to i32
  %38 = and i32 %37, 240
  %39 = ashr i32 %38, 4
  %40 = load i32, ptr %10, align 4
  %41 = load i8, ptr %9, align 1
  %42 = zext i8 %41 to i32
  %43 = and i32 %42, 240
  %44 = ashr i32 %43, 4
  %45 = call ptr (ptr, i32, ptr, i32, i32, i32, ptr, ...) @proto_tree_add_uint_format(ptr noundef %32, i32 noundef %33, ptr noundef %34, i32 noundef %35, i32 noundef 1, i32 noundef %39, ptr noundef @.str.1299, i32 noundef %40, i32 noundef %44)
  %46 = load i32, ptr %8, align 4
  %47 = add i32 %46, 1
  store i32 %47, ptr %8, align 4
  br label %48

48:                                               ; preds = %14
  %49 = load i32, ptr %10, align 4
  %50 = add i32 %49, 1
  store i32 %50, ptr %10, align 4
  br label %11, !llvm.loop !45

51:                                               ; preds = %11
  call void @llvm.lifetime.end.p0(i64 4, ptr %10) #8
  call void @llvm.lifetime.end.p0(i64 1, ptr %9) #8
  ret void
}