; Function Attrs: null_pointer_is_valid sspstrong uwtable
define internal fastcc void @decode_subdevice_state(ptr noundef %0, ptr noundef %1) unnamed_addr #0 {
  br label %3

3:                                                ; preds = %2, %3
  %.02 = phi i32 [ 0, %2 ], [ %14, %3 ]
  %.0171 = phi i32 [ 3, %2 ], [ %13, %3 ]
  %4 = tail call zeroext i8 @tvb_get_uint8(ptr noundef %1, i32 noundef %.0171)
  %5 = load i32, ptr @hf_ua3g_subdevice_state, align 4
  %6 = zext i8 %4 to i32
  %7 = and i32 %6, 15
  %8 = tail call ptr (ptr, i32, ptr, i32, i32, i32, ptr, ...) @proto_tree_add_uint_format(ptr noundef %0, i32 noundef %5, ptr noundef %1, i32 noundef %.0171, i32 noundef 1, i32 noundef %7, ptr noundef nonnull @.str.1299, i32 noundef %.02, i32 noundef %7)
  %9 = or disjoint i32 %.02, 1
  %10 = load i32, ptr @hf_ua3g_subdevice_state, align 4
  %11 = lshr i32 %6, 4
  %12 = tail call ptr (ptr, i32, ptr, i32, i32, i32, ptr, ...) @proto_tree_add_uint_format(ptr noundef %0, i32 noundef %10, ptr noundef %1, i32 noundef %.0171, i32 noundef 1, i32 noundef %11, ptr noundef nonnull @.str.1299, i32 noundef %9, i32 noundef %11)
  %13 = add nuw nsw i32 %.0171, 1
  %14 = add nuw nsw i32 %.02, 2
  %exitcond.not = icmp eq i32 %13, 7
  br i1 %exitcond.not, label %15, label %3, !llvm.loop !45

15:                                               ; preds = %3
  ret void
}